; ModuleID = '19/304.c'
source_filename = "19/304.c"
target datalayout = "e-m:e-p270:32:32-p271:32:32-p272:64:64-i64:64-f80:128-n8:16:32:64-S128"
target triple = "x86_64-pc-linux-gnu"

@.str = private unnamed_addr constant [2 x i8] c" \00", align 1
@.str.1 = private unnamed_addr constant [3 x i8] c"%s\00", align 1

; Function Attrs: noinline nounwind uwtable
define dso_local void @main() #0 {
  %1 = alloca [100 x i8], align 16
  %2 = alloca [100 x [100 x i8]], align 16
  %3 = alloca [100 x i8], align 16
  %4 = alloca [100 x i8], align 16
  %5 = alloca [100 x [100 x i8]], align 16
  %6 = alloca [100 x i8], align 16
  %7 = alloca i32, align 4
  %8 = alloca i32, align 4
  %9 = alloca i32, align 4
  %10 = alloca i32, align 4
  %11 = alloca i32, align 4
  %12 = alloca [100 x i32], align 16
  %13 = alloca i32, align 4
  %14 = bitcast [100 x [100 x i8]]* %2 to i8*
  call void @llvm.memset.p0i8.i64(i8* align 16 %14, i8 0, i64 10000, i1 false)
  %15 = bitcast [100 x i8]* %4 to i8*
  call void @llvm.memset.p0i8.i64(i8* align 16 %15, i8 0, i64 100, i1 false)
  store i32 0, i32* %9, align 4
  store i32 0, i32* %10, align 4
  store i32 0, i32* %11, align 4
  %16 = bitcast [100 x i32]* %12 to i8*
  call void @llvm.memset.p0i8.i64(i8* align 16 %16, i8 0, i64 400, i1 false)
  %17 = getelementptr inbounds [100 x i8], [100 x i8]* %1, i64 0, i64 0
  %18 = call i32 (i8*, ...) bitcast (i32 (...)* @gets to i32 (i8*, ...)*)(i8* %17)
  %19 = getelementptr inbounds [100 x i8], [100 x i8]* %3, i64 0, i64 0
  %20 = call i32 (i8*, ...) bitcast (i32 (...)* @gets to i32 (i8*, ...)*)(i8* %19)
  %21 = getelementptr inbounds [100 x i8], [100 x i8]* %4, i64 0, i64 0
  %22 = call i32 (i8*, ...) bitcast (i32 (...)* @gets to i32 (i8*, ...)*)(i8* %21)
  %23 = getelementptr inbounds [100 x i8], [100 x i8]* %1, i64 0, i64 0
  %24 = call i64 @strlen(i8* %23) #5
  %25 = trunc i64 %24 to i32
  store i32 %25, i32* %7, align 4
  store i32 0, i32* %8, align 4
  br label %26

26:                                               ; preds = %41, %0
  %27 = load i32, i32* %8, align 4
  %28 = load i32, i32* %7, align 4
  %29 = icmp slt i32 %27, %28
  br i1 %29, label %30, label %44

30:                                               ; preds = %26
  %31 = load i32, i32* %8, align 4
  %32 = sext i32 %31 to i64
  %33 = getelementptr inbounds [100 x i8], [100 x i8]* %1, i64 0, i64 %32
  %34 = load i8, i8* %33, align 1
  %35 = sext i8 %34 to i32
  %36 = icmp eq i32 %35, 32
  br i1 %36, label %37, label %40

37:                                               ; preds = %30
  %38 = load i32, i32* %9, align 4
  %39 = add nsw i32 %38, 1
  store i32 %39, i32* %9, align 4
  br label %40

40:                                               ; preds = %37, %30
  br label %41

41:                                               ; preds = %40
  %42 = load i32, i32* %8, align 4
  %43 = add nsw i32 %42, 1
  store i32 %43, i32* %8, align 4
  br label %26

44:                                               ; preds = %26
  store i32 0, i32* %8, align 4
  br label %45

45:                                               ; preds = %84, %44
  %46 = load i32, i32* %8, align 4
  %47 = load i32, i32* %9, align 4
  %48 = icmp sle i32 %46, %47
  br i1 %48, label %49, label %87

49:                                               ; preds = %45
  store i32 0, i32* %13, align 4
  br label %50

50:                                               ; preds = %70, %49
  %51 = load i32, i32* %11, align 4
  %52 = sext i32 %51 to i64
  %53 = getelementptr inbounds [100 x i8], [100 x i8]* %1, i64 0, i64 %52
  %54 = load i8, i8* %53, align 1
  %55 = sext i8 %54 to i32
  %56 = icmp ne i32 %55, 32
  br i1 %56, label %57, label %73

57:                                               ; preds = %50
  %58 = load i32, i32* %11, align 4
  %59 = sext i32 %58 to i64
  %60 = getelementptr inbounds [100 x i8], [100 x i8]* %1, i64 0, i64 %59
  %61 = load i8, i8* %60, align 1
  %62 = load i32, i32* %8, align 4
  %63 = sext i32 %62 to i64
  %64 = getelementptr inbounds [100 x [100 x i8]], [100 x [100 x i8]]* %2, i64 0, i64 %63
  %65 = load i32, i32* %13, align 4
  %66 = sext i32 %65 to i64
  %67 = getelementptr inbounds [100 x i8], [100 x i8]* %64, i64 0, i64 %66
  store i8 %61, i8* %67, align 1
  %68 = load i32, i32* %11, align 4
  %69 = add nsw i32 %68, 1
  store i32 %69, i32* %11, align 4
  br label %70

70:                                               ; preds = %57
  %71 = load i32, i32* %13, align 4
  %72 = add nsw i32 %71, 1
  store i32 %72, i32* %13, align 4
  br label %50

73:                                               ; preds = %50
  %74 = load i32, i32* %11, align 4
  %75 = sext i32 %74 to i64
  %76 = getelementptr inbounds [100 x i8], [100 x i8]* %1, i64 0, i64 %75
  %77 = load i8, i8* %76, align 1
  %78 = sext i8 %77 to i32
  %79 = icmp eq i32 %78, 32
  br i1 %79, label %80, label %83

80:                                               ; preds = %73
  %81 = load i32, i32* %11, align 4
  %82 = add nsw i32 %81, 1
  store i32 %82, i32* %11, align 4
  br label %83

83:                                               ; preds = %80, %73
  br label %84

84:                                               ; preds = %83
  %85 = load i32, i32* %8, align 4
  %86 = add nsw i32 %85, 1
  store i32 %86, i32* %8, align 4
  br label %45

87:                                               ; preds = %45
  store i32 0, i32* %8, align 4
  br label %88

88:                                               ; preds = %118, %87
  %89 = load i32, i32* %8, align 4
  %90 = load i32, i32* %9, align 4
  %91 = icmp sle i32 %89, %90
  br i1 %91, label %92, label %121

92:                                               ; preds = %88
  %93 = load i32, i32* %8, align 4
  %94 = sext i32 %93 to i64
  %95 = getelementptr inbounds [100 x [100 x i8]], [100 x [100 x i8]]* %2, i64 0, i64 %94
  %96 = getelementptr inbounds [100 x i8], [100 x i8]* %95, i64 0, i64 0
  %97 = getelementptr inbounds [100 x i8], [100 x i8]* %3, i64 0, i64 0
  %98 = call i32 @strcmp(i8* %96, i8* %97) #5
  %99 = icmp eq i32 %98, 0
  br i1 %99, label %100, label %107

100:                                              ; preds = %92
  %101 = load i32, i32* %8, align 4
  %102 = sext i32 %101 to i64
  %103 = getelementptr inbounds [100 x [100 x i8]], [100 x [100 x i8]]* %5, i64 0, i64 %102
  %104 = getelementptr inbounds [100 x i8], [100 x i8]* %103, i64 0, i64 0
  %105 = getelementptr inbounds [100 x i8], [100 x i8]* %4, i64 0, i64 0
  %106 = call i8* @strcpy(i8* %104, i8* %105) #6
  br label %117

107:                                              ; preds = %92
  %108 = load i32, i32* %8, align 4
  %109 = sext i32 %108 to i64
  %110 = getelementptr inbounds [100 x [100 x i8]], [100 x [100 x i8]]* %5, i64 0, i64 %109
  %111 = getelementptr inbounds [100 x i8], [100 x i8]* %110, i64 0, i64 0
  %112 = load i32, i32* %8, align 4
  %113 = sext i32 %112 to i64
  %114 = getelementptr inbounds [100 x [100 x i8]], [100 x [100 x i8]]* %2, i64 0, i64 %113
  %115 = getelementptr inbounds [100 x i8], [100 x i8]* %114, i64 0, i64 0
  %116 = call i8* @strcpy(i8* %111, i8* %115) #6
  br label %117

117:                                              ; preds = %107, %100
  br label %118

118:                                              ; preds = %117
  %119 = load i32, i32* %8, align 4
  %120 = add nsw i32 %119, 1
  store i32 %120, i32* %8, align 4
  br label %88

121:                                              ; preds = %88
  %122 = getelementptr inbounds [100 x i8], [100 x i8]* %6, i64 0, i64 0
  %123 = getelementptr inbounds [100 x [100 x i8]], [100 x [100 x i8]]* %5, i64 0, i64 0
  %124 = getelementptr inbounds [100 x i8], [100 x i8]* %123, i64 0, i64 0
  %125 = call i8* @strcpy(i8* %122, i8* %124) #6
  store i32 1, i32* %8, align 4
  br label %126

126:                                              ; preds = %139, %121
  %127 = load i32, i32* %8, align 4
  %128 = load i32, i32* %9, align 4
  %129 = icmp sle i32 %127, %128
  br i1 %129, label %130, label %142

130:                                              ; preds = %126
  %131 = getelementptr inbounds [100 x i8], [100 x i8]* %6, i64 0, i64 0
  %132 = call i8* @strcat(i8* %131, i8* getelementptr inbounds ([2 x i8], [2 x i8]* @.str, i64 0, i64 0)) #6
  %133 = getelementptr inbounds [100 x i8], [100 x i8]* %6, i64 0, i64 0
  %134 = load i32, i32* %8, align 4
  %135 = sext i32 %134 to i64
  %136 = getelementptr inbounds [100 x [100 x i8]], [100 x [100 x i8]]* %5, i64 0, i64 %135
  %137 = getelementptr inbounds [100 x i8], [100 x i8]* %136, i64 0, i64 0
  %138 = call i8* @strcat(i8* %133, i8* %137) #6
  br label %139

139:                                              ; preds = %130
  %140 = load i32, i32* %8, align 4
  %141 = add nsw i32 %140, 1
  store i32 %141, i32* %8, align 4
  br label %126

142:                                              ; preds = %126
  %143 = getelementptr inbounds [100 x i8], [100 x i8]* %6, i64 0, i64 0
  %144 = call i32 (i8*, ...) @printf(i8* getelementptr inbounds ([3 x i8], [3 x i8]* @.str.1, i64 0, i64 0), i8* %143)
  ret void
}

; Function Attrs: argmemonly nounwind willreturn
declare void @llvm.memset.p0i8.i64(i8* nocapture writeonly, i8, i64, i1 immarg) #1

declare dso_local i32 @gets(...) #2

; Function Attrs: nounwind readonly
declare dso_local i64 @strlen(i8*) #3

; Function Attrs: nounwind readonly
declare dso_local i32 @strcmp(i8*, i8*) #3

; Function Attrs: nounwind
declare dso_local i8* @strcpy(i8*, i8*) #4

; Function Attrs: nounwind
declare dso_local i8* @strcat(i8*, i8*) #4

declare dso_local i32 @printf(i8*, ...) #2


!llvm.module.flags = !{!0}
!llvm.ident = !{!1}

!0 = !{i32 1, !"wchar_size", i32 4}
!1 = !{!"clang version 10.0.0-4ubuntu1 "}
